target datalayout = "e-m:e-p270:32:32-p271:32:32-p272:64:64-i64:64-i128:128-f80:128-n8:16:32:64-S128"
target triple = "x86_64-pc-linux-gnu"

%struct.strvec = type { ptr, i64, i64 }
%struct.strbuf = type { i64, i64, ptr }
%struct.child_process = type { %struct.strvec, %struct.strvec, i32, i32, i64, ptr, ptr, i32, i32, i32, ptr, i16, ptr }
%struct.string_list_item = type { ptr, ptr }
%struct.repository = type { ptr, ptr, ptr, ptr, ptr, %struct.strmap, %struct.strmap, %struct.repo_path_cache, ptr, ptr, ptr, ptr, %struct.repo_settings, ptr, ptr, ptr, ptr, ptr, ptr, i32, i32, i32, ptr, ptr, i32, i32, i8 }
%struct.strmap = type { %struct.hashmap, ptr, i8 }
%struct.hashmap = type { ptr, ptr, ptr, i32, i32, i32, i32, i8 }
%struct.repo_path_cache = type { ptr, ptr, ptr, ptr, ptr, ptr, ptr }
%struct.repo_settings = type { i32, i32, i32, i32, i32, i32, i32, i32, i32, i32, i32, i32, ptr, i32, i32, i32, i32, i32, i32, i32, i64, i64, i64 }
%struct.git_hash_algo = type { ptr, i32, i64, i64, i64, ptr, ptr, ptr, ptr, ptr, ptr, ptr, ptr, ptr }

@the_repository = external global ptr, align 8
@.str.134 = private unnamed_addr constant [2 x i8] c"r\00", align 1
@.str.135 = private unnamed_addr constant [67 x i8] c"repack: Expecting full hex object ID lines only from pack-objects.\00", align 1
@__const.finish_pack_objects_cmd.line = private unnamed_addr constant %struct.strbuf { i64 0, i64 0, ptr @strbuf_slopbuf }, align 8

; Function Attrs: nounwind uwtable
define internal i32 @finish_pack_objects_cmd(ptr noundef %0, ptr noundef %1, i32 noundef %2) #0 {
  %4 = alloca ptr, align 8
  %5 = alloca ptr, align 8
  %6 = alloca i32, align 4
  %7 = alloca ptr, align 8
  %8 = alloca %struct.strbuf, align 8
  %9 = alloca ptr, align 8
  store ptr %0, ptr %4, align 8, !tbaa !125
  store ptr %1, ptr %5, align 8, !tbaa !103
  store i32 %2, ptr %6, align 4, !tbaa !4
  call void @llvm.lifetime.start.p0(i64 8, ptr %7) #10
  call void @llvm.lifetime.start.p0(i64 24, ptr %8) #10
  call void @llvm.memcpy.p0.p0.i64(ptr align 8 %8, ptr align 8 @__const.finish_pack_objects_cmd.line, i64 24, i1 false)
  %10 = load ptr, ptr %4, align 8, !tbaa !125
  %11 = getelementptr inbounds nuw %struct.child_process, ptr %10, i32 0, i32 8
  %12 = load i32, ptr %11, align 4, !tbaa !129
  %13 = call ptr @xfdopen(i32 noundef %12, ptr noundef @.str.134)
  store ptr %13, ptr %7, align 8, !tbaa !59
  br label %14

14:                                               ; preds = %42, %3
  %15 = load ptr, ptr %7, align 8, !tbaa !59
  %16 = call i32 @strbuf_getline_lf(ptr noundef %8, ptr noundef %15)
  %17 = icmp ne i32 %16, -1
  br i1 %17, label %18, label %43

18:                                               ; preds = %14
  call void @llvm.lifetime.start.p0(i64 8, ptr %9) #10
  %19 = getelementptr inbounds nuw %struct.strbuf, ptr %8, i32 0, i32 1
  %20 = load i64, ptr %19, align 8, !tbaa !130
  %21 = load ptr, ptr @the_repository, align 8, !tbaa !13
  %22 = getelementptr inbounds nuw %struct.repository, ptr %21, i32 0, i32 17
  %23 = load ptr, ptr %22, align 8, !tbaa !131
  %24 = getelementptr inbounds nuw %struct.git_hash_algo, ptr %23, i32 0, i32 3
  %25 = load i64, ptr %24, align 8, !tbaa !132
  %26 = icmp ne i64 %20, %25
  br i1 %26, label %27, label %29

27:                                               ; preds = %18
  %28 = call ptr @_(ptr noundef @.str.135)
  call void (ptr, ...) @die(ptr noundef %28) #11
  unreachable

29:                                               ; preds = %18
  %30 = load i32, ptr %6, align 4, !tbaa !4
  %31 = icmp ne i32 %30, 0
  br i1 %31, label %32, label %42

32:                                               ; preds = %29
  %33 = load ptr, ptr %5, align 8, !tbaa !103
  %34 = getelementptr inbounds nuw %struct.strbuf, ptr %8, i32 0, i32 2
  %35 = load ptr, ptr %34, align 8, !tbaa !40
  %36 = call ptr @string_list_append(ptr noundef %33, ptr noundef %35)
  store ptr %36, ptr %9, align 8, !tbaa !53
  %37 = getelementptr inbounds nuw %struct.strbuf, ptr %8, i32 0, i32 2
  %38 = load ptr, ptr %37, align 8, !tbaa !40
  %39 = call ptr @populate_pack_exts(ptr noundef %38)
  %40 = load ptr, ptr %9, align 8, !tbaa !53
  %41 = getelementptr inbounds nuw %struct.string_list_item, ptr %40, i32 0, i32 1
  store ptr %39, ptr %41, align 8, !tbaa !87
  br label %42

42:                                               ; preds = %32, %29
  call void @llvm.lifetime.end.p0(i64 8, ptr %9) #10
  br label %14, !llvm.loop !138

43:                                               ; preds = %14
  %44 = load ptr, ptr %7, align 8, !tbaa !59
  %45 = call i32 @fclose(ptr noundef %44)
  call void @strbuf_release(ptr noundef %8)
  %46 = load ptr, ptr %4, align 8, !tbaa !125
  %47 = call i32 @finish_command(ptr noundef %46)
  call void @llvm.lifetime.end.p0(i64 24, ptr %8) #10
  call void @llvm.lifetime.end.p0(i64 8, ptr %7) #10
  ret i32 %47
}