; Function Attrs: nounwind uwtable
define internal fastcc i32 @finish_pack_objects_cmd(ptr noundef nonnull %0, ptr noundef nonnull %1, i32 noundef range(i32 0, 2) %2) unnamed_addr #0 {
  %4 = alloca %struct.strbuf, align 8
  call void @llvm.lifetime.start.p0(i64 24, ptr nonnull %4) #16
  call void @llvm.memcpy.p0.p0.i64(ptr noundef nonnull align 8 dereferenceable(24) %4, ptr noundef nonnull align 8 dereferenceable(24) @__const.geometry_remove_redundant_packs.buf, i64 24, i1 false)
  %5 = getelementptr inbounds nuw i8, ptr %0, i64 84
  %6 = load i32, ptr %5, align 4, !tbaa !74
  %7 = tail call ptr @xfdopen(i32 noundef %6, ptr noundef nonnull @.str.134) #16
  %8 = call i32 @strbuf_getline_lf(ptr noundef nonnull %4, ptr noundef %7) #16
  %.not8 = icmp eq i32 %8, -1
  br i1 %.not8, label %._crit_edge, label %.lr.ph

.lr.ph:                                           ; preds = %3
  %9 = getelementptr inbounds nuw i8, ptr %4, i64 8
  %.not7 = icmp eq i32 %2, 0
  %10 = getelementptr inbounds nuw i8, ptr %4, i64 16
  br i1 %.not7, label %.lr.ph.split.us, label %.lr.ph.split

.lr.ph.split.us:                                  ; preds = %.lr.ph, %17
  %11 = load i64, ptr %9, align 8, !tbaa !50
  %12 = load ptr, ptr @the_repository, align 8, !tbaa !22
  %13 = getelementptr inbounds nuw i8, ptr %12, i64 400
  %14 = load ptr, ptr %13, align 8, !tbaa !75
  %15 = getelementptr inbounds nuw i8, ptr %14, i64 24
  %16 = load i64, ptr %15, align 8, !tbaa !93
  %.not6.us = icmp eq i64 %11, %16
  br i1 %.not6.us, label %17, label %.split.us

17:                                               ; preds = %.lr.ph.split.us
  %18 = call i32 @strbuf_getline_lf(ptr noundef nonnull %4, ptr noundef %7) #16
  %.not.us = icmp eq i32 %18, -1
  br i1 %.not.us, label %._crit_edge, label %.lr.ph.split.us, !llvm.loop !121

.lr.ph.split:                                     ; preds = %.lr.ph, %26
  %19 = load i64, ptr %9, align 8, !tbaa !50
  %20 = load ptr, ptr @the_repository, align 8, !tbaa !22
  %21 = getelementptr inbounds nuw i8, ptr %20, i64 400
  %22 = load ptr, ptr %21, align 8, !tbaa !75
  %23 = getelementptr inbounds nuw i8, ptr %22, i64 24
  %24 = load i64, ptr %23, align 8, !tbaa !93
  %.not6 = icmp eq i64 %19, %24
  br i1 %.not6, label %26, label %.split.us

.split.us:                                        ; preds = %.lr.ph.split, %.lr.ph.split.us
  %25 = call fastcc ptr @_(ptr noundef nonnull @.str.135)
  call void (ptr, ...) @die(ptr noundef %25) #17
  unreachable

26:                                               ; preds = %.lr.ph.split
  %27 = load ptr, ptr %10, align 8, !tbaa !32
  %28 = call ptr @string_list_append(ptr noundef nonnull %1, ptr noundef %27) #16
  %29 = load ptr, ptr %10, align 8, !tbaa !32
  %30 = call fastcc ptr @populate_pack_exts(ptr noundef %29)
  %31 = getelementptr inbounds nuw i8, ptr %28, i64 8
  store ptr %30, ptr %31, align 8, !tbaa !95
  %32 = call i32 @strbuf_getline_lf(ptr noundef nonnull %4, ptr noundef %7) #16
  %.not = icmp eq i32 %32, -1
  br i1 %.not, label %._crit_edge, label %.lr.ph.split, !llvm.loop !121

._crit_edge:                                      ; preds = %26, %17, %3
  %33 = call i32 @fclose(ptr noundef %7)
  call void @strbuf_release(ptr noundef nonnull %4) #16
  %34 = call i32 @finish_command(ptr noundef nonnull %0) #16
  call void @llvm.lifetime.end.p0(i64 24, ptr nonnull %4) #16
  ret i32 %34
}